; Function Attrs: mustprogress nofree norecurse nosync nounwind memory(readwrite, inaccessiblemem: none) uwtable
define hidden void @_ZN6Assimp3IFC8TempMesh9TransformERK12aiMatrix4x4tIdE(ptr noundef nonnull readonly align 8 captures(none) dereferenceable(48) %0, ptr noundef nonnull readonly align 8 captures(none) dereferenceable(128) %1) local_unnamed_addr #0 align 2 {
  %3 = load ptr, ptr %0, align 8
  %4 = getelementptr inbounds nuw i8, ptr %0, i64 8
  %5 = load ptr, ptr %4, align 8
  %.not8 = icmp eq ptr %3, %5
  br i1 %.not8, label %._crit_edge, label %.lr.ph

.lr.ph:                                           ; preds = %2
  %6 = getelementptr inbounds nuw i8, ptr %1, i64 8
  %7 = getelementptr inbounds nuw i8, ptr %1, i64 16
  %8 = getelementptr inbounds nuw i8, ptr %1, i64 24
  %9 = getelementptr inbounds nuw i8, ptr %1, i64 32
  %10 = getelementptr inbounds nuw i8, ptr %1, i64 40
  %11 = getelementptr inbounds nuw i8, ptr %1, i64 48
  %12 = getelementptr inbounds nuw i8, ptr %1, i64 56
  %13 = getelementptr inbounds nuw i8, ptr %1, i64 64
  %14 = getelementptr inbounds nuw i8, ptr %1, i64 72
  %15 = getelementptr inbounds nuw i8, ptr %1, i64 80
  %16 = getelementptr inbounds nuw i8, ptr %1, i64 88
  br label %17

._crit_edge:                                      ; preds = %17, %2
  ret void

17:                                               ; preds = %.lr.ph, %17
  %.sroa.05.09 = phi ptr [ %3, %.lr.ph ], [ %47, %17 ]
  %18 = load double, ptr %1, align 8, !noalias !12
  %19 = load double, ptr %.sroa.05.09, align 8, !noalias !12
  %20 = load double, ptr %6, align 8, !noalias !12
  %21 = getelementptr inbounds nuw i8, ptr %.sroa.05.09, i64 8
  %22 = load double, ptr %21, align 8, !noalias !12
  %23 = fmul double %20, %22
  %24 = tail call double @llvm.fmuladd.f64(double %18, double %19, double %23)
  %25 = load double, ptr %7, align 8, !noalias !12
  %26 = getelementptr inbounds nuw i8, ptr %.sroa.05.09, i64 16
  %27 = load double, ptr %26, align 8, !noalias !12
  %28 = tail call double @llvm.fmuladd.f64(double %25, double %27, double %24)
  %29 = load double, ptr %8, align 8, !noalias !12
  %30 = fadd double %28, %29
  %31 = load double, ptr %9, align 8, !noalias !12
  %32 = load double, ptr %10, align 8, !noalias !12
  %33 = fmul double %22, %32
  %34 = tail call double @llvm.fmuladd.f64(double %31, double %19, double %33)
  %35 = load double, ptr %11, align 8, !noalias !12
  %36 = tail call double @llvm.fmuladd.f64(double %35, double %27, double %34)
  %37 = load double, ptr %12, align 8, !noalias !12
  %38 = fadd double %37, %36
  %39 = load double, ptr %13, align 8, !noalias !12
  %40 = load double, ptr %14, align 8, !noalias !12
  %41 = fmul double %22, %40
  %42 = tail call double @llvm.fmuladd.f64(double %39, double %19, double %41)
  %43 = load double, ptr %15, align 8, !noalias !12
  %44 = tail call double @llvm.fmuladd.f64(double %43, double %27, double %42)
  %45 = load double, ptr %16, align 8, !noalias !12
  %46 = fadd double %45, %44
  store double %30, ptr %.sroa.05.09, align 8
  store double %38, ptr %21, align 8
  store double %46, ptr %26, align 8
  %47 = getelementptr inbounds nuw i8, ptr %.sroa.05.09, i64 24
  %.not = icmp eq ptr %47, %5
  br i1 %.not, label %._crit_edge, label %17
}